	.file	"rram-usbserial.c"
__SP_H__ = 0x3e
__SP_L__ = 0x3d
__SREG__ = 0x3f
__tmp_reg__ = 0
__zero_reg__ = 1
	.text
.Ltext0:
	.cfi_sections	.debug_frame
	.section	.text.RingBuffer_Insert,"ax",@progbits
	.type	RingBuffer_Insert, @function
RingBuffer_Insert:
.LFB104:
	.file 1 "Lib/RingBuffer.h"
	.loc 1 77 0
	.cfi_startproc
.LVL0:
/* prologue: function */
/* frame size = 0 */
/* stack size = 0 */
.L__stack_usage = 0
	.loc 1 78 0
	movw r30,r24
	subi r30,-128
	sbci r31,-1
	ld r26,Z
	ldd r27,Z+1
	st X,r22
	.loc 1 80 0
	ld r26,Z
	ldd r27,Z+1
	movw r18,r26
	subi r18,-1
	sbci r19,-1
	std Z+1,r19
	st Z,r18
	cp r18,r30
	cpc r19,r31
	brne .L2
	.loc 1 81 0
	adiw r26,1+1
	st X,r25
	st -X,r24
	sbiw r26,1
.L2:
.LBB92:
	.loc 1 83 0
	in r18,__SREG__
.LVL1:
.LBB93:
.LBB94:
	.file 2 "/nethome/mchang87/Projects/RRAM/atmega16u2/avr8-gnu-toolchain-linux_x86_64/avr/include/util/atomic.h"
	.loc 2 50 0
/* #APP */
 ;  50 "/nethome/mchang87/Projects/RRAM/atmega16u2/avr8-gnu-toolchain-linux_x86_64/avr/include/util/atomic.h" 1
	cli
 ;  0 "" 2
.LVL2:
/* #NOAPP */
.LBE94:
.LBE93:
	.loc 1 85 0
	movw r30,r24
	subi r30,124
	sbci r31,-1
	ld r24,Z
	ldd r25,Z+1
.LVL3:
	adiw r24,1
	std Z+1,r25
	st Z,r24
.LVL4:
.LBB95:
.LBB96:
	.loc 2 70 0
	out __SREG__,r18
	.loc 2 71 0
.LVL5:
	ret
.LBE96:
.LBE95:
.LBE92:
	.cfi_endproc
.LFE104:
	.size	RingBuffer_Insert, .-RingBuffer_Insert
	.section	.text.RingBuffer_Remove,"ax",@progbits
	.type	RingBuffer_Remove, @function
RingBuffer_Remove:
.LFB105:
	.loc 1 101 0
	.cfi_startproc
.LVL6:
/* prologue: function */
/* frame size = 0 */
/* stack size = 0 */
.L__stack_usage = 0
	.loc 1 102 0
	movw r26,r24
	subi r26,126
	sbci r27,-1
	ld r30,X+
	ld r31,X
	sbiw r26,1
	ld r20,Z+
.LVL7:
	.loc 1 104 0
	adiw r26,1
	st X,r31
	st -X,r30
	movw r18,r24
	subi r18,-128
	sbci r19,-1
	cp r30,r18
	cpc r31,r19
	brne .L5
	.loc 1 105 0
	st X+,r24
	st X,r25
.L5:
.LBB97:
	.loc 1 107 0
	in r21,__SREG__
.LVL8:
.LBB98:
.LBB99:
	.loc 2 50 0
/* #APP */
 ;  50 "/nethome/mchang87/Projects/RRAM/atmega16u2/avr8-gnu-toolchain-linux_x86_64/avr/include/util/atomic.h" 1
	cli
 ;  0 "" 2
.LVL9:
/* #NOAPP */
.LBE99:
.LBE98:
	.loc 1 109 0
	movw r30,r24
	subi r30,124
	sbci r31,-1
	ld r18,Z
	ldd r19,Z+1
	subi r18,1
	sbc r19,__zero_reg__
	std Z+1,r19
	st Z,r18
.LVL10:
.LBB100:
.LBB101:
	.loc 2 70 0
	out __SREG__,r21
	.loc 2 71 0
.LVL11:
.LBE101:
.LBE100:
.LBE97:
	.loc 1 113 0
	mov r24,r20
.LVL12:
	ret
	.cfi_endproc
.LFE105:
	.size	RingBuffer_Remove, .-RingBuffer_Remove
	.section	.text.SW_PulseClock,"ax",@progbits
	.type	SW_PulseClock, @function
SW_PulseClock:
.LFB118:
	.file 3 "Lib/SWD.h"
	.loc 3 157 0
	.cfi_startproc
.LVL13:
/* prologue: function */
/* frame size = 0 */
/* stack size = 0 */
.L__stack_usage = 0
.LBB102:
	.loc 3 158 0
	ldi r25,0
.LVL14:
.L7:
	.loc 3 158 0 is_stmt 0 discriminator 1
	cp r25,r24
	breq .L9
	.loc 3 159 0 is_stmt 1 discriminator 3
	in r18,0x8
	subi r18,lo8(-(-128))
	out 0x8,r18
	.loc 3 160 0 discriminator 3
	in r18,0x8
	subi r18,lo8(-(-128))
	out 0x8,r18
	.loc 3 158 0 discriminator 3
	subi r25,lo8(-(1))
.LVL15:
	rjmp .L7
.L9:
/* epilogue start */
.LBE102:
	.loc 3 162 0
	ret
	.cfi_endproc
.LFE118:
	.size	SW_PulseClock, .-SW_PulseClock
	.section	.text.SW_Send,"ax",@progbits
	.type	SW_Send, @function
SW_Send:
.LFB120:
	.loc 3 179 0
	.cfi_startproc
.LVL16:
	push r12
.LCFI0:
	.cfi_def_cfa_offset 3
	.cfi_offset 12, -2
	push r13
.LCFI1:
	.cfi_def_cfa_offset 4
	.cfi_offset 13, -3
	push r14
.LCFI2:
	.cfi_def_cfa_offset 5
	.cfi_offset 14, -4
	push r15
.LCFI3:
	.cfi_def_cfa_offset 6
	.cfi_offset 15, -5
	push r16
.LCFI4:
	.cfi_def_cfa_offset 7
	.cfi_offset 16, -6
	push r17
.LCFI5:
	.cfi_def_cfa_offset 8
	.cfi_offset 17, -7
	push r28
.LCFI6:
	.cfi_def_cfa_offset 9
	.cfi_offset 28, -8
	push r29
.LCFI7:
	.cfi_def_cfa_offset 10
	.cfi_offset 29, -9
/* prologue: function */
/* frame size = 0 */
/* stack size = 8 */
.L__stack_usage = 8
	movw r12,r22
	movw r14,r24
.LVL17:
	mov r16,r20
	ldi r17,0
.LBB103:
	.loc 3 181 0
	ldi r28,0
	ldi r29,0
.LVL18:
.L11:
	.loc 3 181 0 is_stmt 0 discriminator 1
	cp r28,r16
	cpc r29,r17
	breq .L15
	.loc 3 183 0 is_stmt 1
	movw r26,r14
	movw r24,r12
	mov r0,r28
	rjmp 2f
	1:
	lsr r27
	ror r26
	ror r25
	ror r24
	2:
	dec r0
	brpl 1b
	sbrs r24,0
	rjmp .L12
	.loc 3 184 0
	sbi 0x8,6
	rjmp .L13
.L12:
	.loc 3 186 0
	cbi 0x8,6
.L13:
	.loc 3 189 0 discriminator 2
	ldi r24,lo8(1)
	call SW_PulseClock
.LVL19:
	adiw r28,1
.LVL20:
	rjmp .L11
.L15:
/* epilogue start */
.LBE103:
	.loc 3 191 0
	pop r29
	pop r28
.LVL21:
	pop r17
	pop r16
.LVL22:
	pop r15
	pop r14
	pop r13
	pop r12
.LVL23:
	ret
	.cfi_endproc
.LFE120:
	.size	SW_Send, .-SW_Send
	.section	.text.I2C_StartTransmission,"ax",@progbits
	.type	I2C_StartTransmission, @function
I2C_StartTransmission:
.LFB133:
	.file 4 "Board/../Lib/I2C.h"
	.loc 4 31 0
	.cfi_startproc
/* prologue: function */
/* frame size = 0 */
/* stack size = 0 */
.L__stack_usage = 0
	.loc 4 32 0
	sbi 0xa,1
	.loc 4 33 0
	sbi 0xa,0
	.loc 4 35 0
	sbi 0xb,1
	.loc 4 36 0
	sbi 0xb,0
	.loc 4 37 0
	cbi 0xb,1
	.loc 4 38 0
	cbi 0xb,0
	ret
	.cfi_endproc
.LFE133:
	.size	I2C_StartTransmission, .-I2C_StartTransmission
	.section	.text.I2C_EndTransmission,"ax",@progbits
	.type	I2C_EndTransmission, @function
I2C_EndTransmission:
.LFB134:
	.loc 4 45 0
	.cfi_startproc
/* prologue: function */
/* frame size = 0 */
/* stack size = 0 */
.L__stack_usage = 0
	.loc 4 46 0
	cbi 0xb,1
	.loc 4 47 0
	sbi 0xb,0
	.loc 4 48 0
	sbi 0xb,1
	.loc 4 50 0
	cbi 0xa,1
	.loc 4 51 0
	cbi 0xa,0
	ret
	.cfi_endproc
.LFE134:
	.size	I2C_EndTransmission, .-I2C_EndTransmission
	.section	.text.I2C_SendByte,"ax",@progbits
	.type	I2C_SendByte, @function
I2C_SendByte:
.LFB135:
	.loc 4 58 0
	.cfi_startproc
.LVL24:
/* prologue: function */
/* frame size = 0 */
/* stack size = 0 */
.L__stack_usage = 0
	.loc 4 58 0
	ldi r18,lo8(7)
	ldi r19,0
.LBB104:
	.loc 4 62 0
	ldi r25,0
.LVL25:
.L21:
	movw r20,r24
	mov r0,r18
	rjmp 2f
	1:
	asr r21
	ror r20
	2:
	dec r0
	brpl 1b
	sbrs r20,0
	rjmp .L19
	.loc 4 63 0
	sbi 0xb,1
	rjmp .L20
.L19:
	.loc 4 65 0
	cbi 0xb,1
.L20:
	.loc 4 68 0 discriminator 2
	sbi 0xb,0
	.loc 4 69 0 discriminator 2
	cbi 0xb,0
.LVL26:
.LVL27:
	subi r18,1
	sbc r19,__zero_reg__
	brcc .L21
.LBE104:
	.loc 4 74 0
	sbi 0xb,1
	.loc 4 75 0
	cbi 0xa,1
	.loc 4 76 0
	sbi 0xb,0
	.loc 4 77 0
	in r24,0x9
.LVL28:
	.loc 4 78 0
	cbi 0xb,0
	.loc 4 79 0
	sbi 0xa,1
	.loc 4 82 0
	lsr r24
	andi r24,1
.LVL29:
	ret
	.cfi_endproc
.LFE135:
	.size	I2C_SendByte, .-I2C_SendByte
	.section	.text.PM_UpdateReg,"ax",@progbits
	.type	PM_UpdateReg, @function
PM_UpdateReg:
.LFB139:
	.file 5 "Board/PM.h"
	.loc 5 95 0
	.cfi_startproc
.LVL30:
	push r16
.LCFI8:
	.cfi_def_cfa_offset 3
	.cfi_offset 16, -2
	push r17
.LCFI9:
	.cfi_def_cfa_offset 4
	.cfi_offset 17, -3
	push r28
.LCFI10:
	.cfi_def_cfa_offset 5
	.cfi_offset 28, -4
	push r29
.LCFI11:
	.cfi_def_cfa_offset 6
	.cfi_offset 29, -5
/* prologue: function */
/* frame size = 0 */
/* stack size = 4 */
.L__stack_usage = 4
	mov r17,r24
	mov r16,r22
	mov r29,r20
.LVL31:
.LBB112:
.LBB113:
	.loc 5 81 0
	call I2C_StartTransmission
.LVL32:
	.loc 5 82 0
	ldi r24,lo8(120)
	call I2C_SendByte
.LVL33:
	.loc 5 83 0
	mov r24,r17
	call I2C_SendByte
.LVL34:
	.loc 5 84 0
	call I2C_StartTransmission
.LVL35:
	.loc 5 85 0
	ldi r24,lo8(121)
	call I2C_SendByte
.LVL36:
.LBB114:
.LBB115:
	.loc 4 92 0
	sbi 0xb,1
	.loc 4 93 0
	cbi 0xa,1
.LVL37:
	ldi r18,lo8(7)
	ldi r19,0
	.loc 4 89 0
	ldi r28,0
.LBB116:
	.loc 4 98 0
	ldi r20,lo8(1)
	ldi r21,0
.LVL38:
.L25:
	.loc 4 97 0
	sbi 0xb,0
	.loc 4 98 0
	sbis 0x9,1
	rjmp .L26
	movw r24,r20
	mov r0,r18
	rjmp 2f
	1:
	lsl r24
	2:
	dec r0
	brpl 1b
	rjmp .L24
.L26:
	ldi r24,0
	ldi r25,0
.L24:
	or r28,r24
.LVL39:
	.loc 4 99 0
	cbi 0xb,0
.LVL40:
.LVL41:
	subi r18,1
	sbc r19,__zero_reg__
	brcc .L25
.LBE116:
	.loc 4 103 0
	cbi 0xb,1
	.loc 4 104 0
	sbi 0xa,1
	.loc 4 105 0
	sbi 0xb,0
	.loc 4 106 0
	cbi 0xb,0
	.loc 4 107 0
	sbi 0xb,1
.LVL42:
.LBE115:
.LBE114:
	.loc 5 87 0
	call I2C_EndTransmission
.LVL43:
.LBE113:
.LBE112:
.LBB117:
.LBB118:
	.loc 5 68 0
	call I2C_StartTransmission
.LVL44:
	.loc 5 69 0
	ldi r24,lo8(120)
	call I2C_SendByte
.LVL45:
	.loc 5 70 0
	mov r24,r17
	call I2C_SendByte
.LVL46:
	.loc 5 71 0
	mov r24,r29
	com r24
	and r24,r28
	or r24,r16
.LVL47:
	call I2C_SendByte
.LVL48:
/* epilogue start */
.LBE118:
.LBE117:
	.loc 5 97 0
	pop r29
.LVL49:
	pop r28
.LVL50:
	pop r17
.LVL51:
	pop r16
.LVL52:
.LBB120:
.LBB119:
	.loc 5 72 0
	jmp I2C_EndTransmission
.LVL53:
.LBE119:
.LBE120:
	.cfi_endproc
.LFE139:
	.size	PM_UpdateReg, .-PM_UpdateReg
	.section	.text.getParity,"ax",@progbits
.global	getParity
	.type	getParity, @function
getParity:
.LFB115:
	.loc 3 120 0
	.cfi_startproc
.LVL54:
	push r12
.LCFI12:
	.cfi_def_cfa_offset 3
	.cfi_offset 12, -2
	push r13
.LCFI13:
	.cfi_def_cfa_offset 4
	.cfi_offset 13, -3
	push r14
.LCFI14:
	.cfi_def_cfa_offset 5
	.cfi_offset 14, -4
	push r15
.LCFI15:
	.cfi_def_cfa_offset 6
	.cfi_offset 15, -5
/* prologue: function */
/* frame size = 0 */
/* stack size = 4 */
.L__stack_usage = 4
.LVL55:
	.loc 3 121 0
	ldi r18,0
	.loc 3 123 0
	ldi r19,lo8(1)
.LVL56:
.L29:
	.loc 3 122 0
	cp r22,__zero_reg__
	cpc r23,__zero_reg__
	cpc r24,__zero_reg__
	cpc r25,__zero_reg__
	breq .L31
	.loc 3 123 0
	eor r18,r19
.LVL57:
	.loc 3 124 0
	movw r12,r22
	movw r14,r24
	ldi r20,1
	sub r12,r20
	sbc r13,__zero_reg__
	sbc r14,__zero_reg__
	sbc r15,__zero_reg__
	and r22,r12
	and r23,r13
	and r24,r14
	and r25,r15
.LVL58:
	rjmp .L29
.L31:
	.loc 3 127 0
	mov r24,r18
/* epilogue start */
	pop r15
	pop r14
	pop r13
	pop r12
	ret
	.cfi_endproc
.LFE115:
	.size	getParity, .-getParity
	.section	.text.__vector_9,"ax",@progbits
.global	__vector_9
	.type	__vector_9, @function
__vector_9:
.LFB163:
	.loc 5 214 0
	.cfi_startproc
	push r1
.LCFI16:
	.cfi_def_cfa_offset 3
	.cfi_offset 1, -2
	push r0
.LCFI17:
	.cfi_def_cfa_offset 4
	.cfi_offset 0, -3
	in r0,__SREG__
	push r0
	clr __zero_reg__
/* prologue: Signal */
/* frame size = 0 */
/* stack size = 3 */
.L__stack_usage = 3
/* epilogue start */
	.loc 5 215 0
	pop r0
	out __SREG__,r0
	pop r0
	pop r1
	reti
	.cfi_endproc
.LFE163:
	.size	__vector_9, .-__vector_9
	.section	.text.__vector_10,"ax",@progbits
.global	__vector_10
	.type	__vector_10, @function
__vector_10:
.LFB164:
	.loc 5 217 0
	.cfi_startproc
	push r1
.LCFI18:
	.cfi_def_cfa_offset 3
	.cfi_offset 1, -2
	push r0
.LCFI19:
	.cfi_def_cfa_offset 4
	.cfi_offset 0, -3
	in r0,__SREG__
	push r0
	clr __zero_reg__
	push r18
.LCFI20:
	.cfi_def_cfa_offset 5
	.cfi_offset 18, -4
	push r19
.LCFI21:
	.cfi_def_cfa_offset 6
	.cfi_offset 19, -5
	push r20
.LCFI22:
	.cfi_def_cfa_offset 7
	.cfi_offset 20, -6
	push r21
.LCFI23:
	.cfi_def_cfa_offset 8
	.cfi_offset 21, -7
	push r22
.LCFI24:
	.cfi_def_cfa_offset 9
	.cfi_offset 22, -8
	push r23
.LCFI25:
	.cfi_def_cfa_offset 10
	.cfi_offset 23, -9
	push r24
.LCFI26:
	.cfi_def_cfa_offset 11
	.cfi_offset 24, -10
	push r25
.LCFI27:
	.cfi_def_cfa_offset 12
	.cfi_offset 25, -11
	push r26
.LCFI28:
	.cfi_def_cfa_offset 13
	.cfi_offset 26, -12
	push r27
.LCFI29:
	.cfi_def_cfa_offset 14
	.cfi_offset 27, -13
	push r30
.LCFI30:
	.cfi_def_cfa_offset 15
	.cfi_offset 30, -14
	push r31
.LCFI31:
	.cfi_def_cfa_offset 16
	.cfi_offset 31, -15
/* prologue: Signal */
/* frame size = 0 */
/* stack size = 15 */
.L__stack_usage = 15
	.loc 5 218 0
	sbis 0x6,2
	rjmp .L34
.LVL59:
.LBB165:
.LBB166:
.LBB167:
	.loc 5 110 0
	ldi r20,lo8(31)
	ldi r22,lo8(19)
	ldi r24,lo8(10)
	call PM_UpdateReg
.LVL60:
.LBE167:
.LBE166:
.LBB168:
.LBB169:
	.loc 5 112 0
	ldi r20,lo8(31)
	ldi r22,lo8(24)
	ldi r24,lo8(14)
	call PM_UpdateReg
.LVL61:
.LBE169:
.LBE168:
.LBB170:
.LBB171:
	.loc 5 111 0
	ldi r20,lo8(31)
	ldi r22,lo8(29)
	ldi r24,lo8(12)
	call PM_UpdateReg
.LVL62:
.LBE171:
.LBE170:
.LBB172:
.LBB173:
	.loc 5 113 0
	ldi r20,lo8(31)
	ldi r22,lo8(11)
	ldi r24,lo8(16)
	call PM_UpdateReg
.LVL63:
.LBE173:
.LBE172:
.LBB174:
.LBB175:
	.loc 5 122 0
	ldi r20,lo8(4)
	ldi r22,lo8(4)
	ldi r24,lo8(5)
	call PM_UpdateReg
.LVL64:
.LBE175:
.LBE174:
.LBB176:
.LBB177:
	.loc 5 123 0
	ldi r20,lo8(4)
	ldi r22,lo8(4)
	ldi r24,lo8(6)
	call PM_UpdateReg
.LVL65:
.LBE177:
.LBE176:
.LBB178:
.LBB179:
	.loc 5 121 0
	ldi r20,lo8(-128)
	ldi r22,lo8(-128)
	ldi r24,lo8(4)
	call PM_UpdateReg
.LVL66:
.LBE179:
.LBE178:
.LBB180:
.LBB181:
	.loc 5 118 0
	ldi r20,lo8(-128)
	ldi r22,lo8(-128)
	ldi r24,lo8(1)
	call PM_UpdateReg
.LVL67:
.LBE181:
.LBE180:
.LBB182:
.LBB183:
	.loc 5 119 0
	ldi r20,lo8(-128)
	ldi r22,lo8(-128)
	ldi r24,lo8(2)
	call PM_UpdateReg
.LVL68:
.LBE183:
.LBE182:
.LBB184:
.LBB185:
	.loc 5 120 0
	ldi r20,lo8(-128)
	ldi r22,lo8(-128)
	ldi r24,lo8(3)
	rjmp .L36
.L34:
.LBE185:
.LBE184:
.LBE165:
	.loc 5 220 0
	sbic 0x6,2
	rjmp .L33
.LBB186:
.LBB187:
.LBB188:
	.loc 5 128 0
	ldi r20,lo8(-128)
	ldi r22,0
	ldi r24,lo8(1)
	call PM_UpdateReg
.LVL69:
.LBE188:
.LBE187:
.LBB189:
.LBB190:
	.loc 5 129 0
	ldi r20,lo8(-128)
	ldi r22,0
	ldi r24,lo8(2)
	call PM_UpdateReg
.LVL70:
.LBE190:
.LBE189:
.LBB191:
.LBB192:
	.loc 5 130 0
	ldi r20,lo8(-128)
	ldi r22,0
	ldi r24,lo8(3)
	call PM_UpdateReg
.LVL71:
.LBE192:
.LBE191:
.LBB193:
.LBB194:
	.loc 5 132 0
	ldi r20,lo8(4)
	ldi r22,0
	ldi r24,lo8(5)
	call PM_UpdateReg
.LVL72:
.LBE194:
.LBE193:
.LBB195:
.LBB196:
	.loc 5 133 0
	ldi r20,lo8(4)
	ldi r22,0
	ldi r24,lo8(6)
	call PM_UpdateReg
.LVL73:
.LBE196:
.LBE195:
.LBB197:
.LBB198:
	.loc 5 131 0
	ldi r20,lo8(-128)
	ldi r22,0
	ldi r24,lo8(4)
.L36:
	call PM_UpdateReg
.LVL74:
.L33:
/* epilogue start */
.LBE198:
.LBE197:
.LBE186:
	.loc 5 222 0
	pop r31
	pop r30
	pop r27
	pop r26
	pop r25
	pop r24
	pop r23
	pop r22
	pop r21
	pop r20
	pop r19
	pop r18
	pop r0
	out __SREG__,r0
	pop r0
	pop r1
	reti
	.cfi_endproc
.LFE164:
	.size	__vector_10, .-__vector_10
	.section	.text.SetupHardware,"ax",@progbits
.global	SetupHardware
	.type	SetupHardware, @function
SetupHardware:
.LFB170:
	.file 6 "rram-usbserial.c"
	.loc 6 98 0
	.cfi_startproc
/* prologue: function */
/* frame size = 0 */
/* stack size = 0 */
.L__stack_usage = 0
	.loc 6 100 0
	in r24,0x34
	andi r24,lo8(-9)
	out 0x34,r24
.LBB243:
.LBB244:
	.file 7 "/nethome/mchang87/Projects/RRAM/atmega16u2/avr8-gnu-toolchain-linux_x86_64/avr/include/avr/wdt.h"
	.loc 7 515 0
/* #APP */
 ;  515 "/nethome/mchang87/Projects/RRAM/atmega16u2/avr8-gnu-toolchain-linux_x86_64/avr/include/avr/wdt.h" 1
	in __tmp_reg__,__SREG__
	cli
	wdr
	lds r24,96
	ori r24,24
	sts 96,r24
	sts 96,__zero_reg__
	out __SREG__,__tmp_reg__
	
 ;  0 "" 2
/* #NOAPP */
.LBE244:
.LBE243:
	.loc 6 104 0
	ldi r24,lo8(-112)
	sts 97,r24
.LVL75:
.LBB245:
.LBB246:
	.loc 1 32 0
	in r18,__SREG__
.LVL76:
.LBB247:
.LBB248:
	.loc 2 50 0
/* #APP */
 ;  50 "/nethome/mchang87/Projects/RRAM/atmega16u2/avr8-gnu-toolchain-linux_x86_64/avr/include/util/atomic.h" 1
	cli
 ;  0 "" 2
.LVL77:
/* #NOAPP */
.LBE248:
.LBE247:
	.loc 1 34 0
	ldi r24,lo8(USBtoUSART_Buffer)
	ldi r25,hi8(USBtoUSART_Buffer)
	sts USBtoUSART_Buffer+128+1,r25
	sts USBtoUSART_Buffer+128,r24
	.loc 1 35 0
	sts USBtoUSART_Buffer+130+1,r25
	sts USBtoUSART_Buffer+130,r24
.LVL78:
.LBB249:
.LBB250:
	.loc 2 70 0
	out __SREG__,r18
	.loc 2 71 0
.LVL79:
.LBE250:
.LBE249:
.LBE246:
.LBE245:
.LBB251:
.LBB252:
	.loc 1 32 0
	in r18,__SREG__
.LVL80:
.LBB253:
.LBB254:
	.loc 2 50 0
/* #APP */
 ;  50 "/nethome/mchang87/Projects/RRAM/atmega16u2/avr8-gnu-toolchain-linux_x86_64/avr/include/util/atomic.h" 1
	cli
 ;  0 "" 2
.LVL81:
/* #NOAPP */
.LBE254:
.LBE253:
	.loc 1 34 0
	ldi r24,lo8(USARTtoUSB_Buffer)
	ldi r25,hi8(USARTtoUSB_Buffer)
	sts USARTtoUSB_Buffer+128+1,r25
	sts USARTtoUSB_Buffer+128,r24
	.loc 1 35 0
	sts USARTtoUSB_Buffer+130+1,r25
	sts USARTtoUSB_Buffer+130,r24
.LVL82:
.LBB255:
.LBB256:
	.loc 2 70 0
	out __SREG__,r18
	.loc 2 71 0
.LVL83:
.LBE256:
.LBE255:
.LBE252:
.LBE251:
	.loc 6 111 0
/* #APP */
 ;  111 "rram-usbserial.c" 1
	sei
 ;  0 "" 2
/* #NOAPP */
.LBB257:
.LBB258:
	.file 8 "./Board/Dataflash.h"
	.loc 8 41 0
	sbi 0x5,4
	.loc 8 42 0
	sbi 0x4,4
.LBE258:
.LBE257:
.LBB259:
.LBB260:
	.file 9 "Board/DAC.h"
	.loc 9 60 0
	sbi 0x5,5
	.loc 9 61 0
	sbi 0x4,5
	.loc 9 63 0
	sbi 0x5,6
	.loc 9 64 0
	sbi 0x4,6
.LBE260:
.LBE259:
.LBB261:
.LBB262:
	.file 10 "Board/RRAM.h"
	.loc 10 34 0
	sbi 0xb,7
	.loc 10 35 0
	sbi 0xa,7
	.loc 10 37 0
	sbi 0xb,6
	.loc 10 38 0
	sbi 0xa,6
.LBE262:
.LBE261:
	.loc 6 119 0
	call USB_Init
.LVL84:
.LBB263:
.LBB264:
	.file 11 "../../LUFA/Drivers/Peripheral/Serial.h"
	.loc 11 102 0
	ldi r24,lo8(103)
	ldi r25,0
	sts 204+1,r25
	sts 204,r24
	.loc 11 104 0
	ldi r24,lo8(6)
	sts 202,r24
	.loc 11 105 0
	sts 200,__zero_reg__
	.loc 11 106 0
	ldi r24,lo8(24)
	sts 201,r24
	.loc 11 108 0
	sbi 0xa,3
	.loc 11 109 0
	sbi 0xb,2
.LVL85:
.LBE264:
.LBE263:
.LBB265:
.LBB266:
	.file 12 "../../LUFA/Drivers/Board/../Peripheral/SPI.h"
	.loc 12 124 0
	in r24,0x4
	ori r24,lo8(6)
	out 0x4,r24
	.loc 12 125 0
	in r24,0x4
	andi r24,lo8(-10)
	out 0x4,r24
	.loc 12 126 0
	in r24,0x5
	ori r24,lo8(9)
	out 0x5,r24
	.loc 12 128 0
	ldi r24,lo8(92)
	out 0x2c,r24
	.loc 12 131 0
	in r24,0x2d
	ori r24,lo8(1)
	out 0x2d,r24
.LVL86:
.LBE266:
.LBE265:
.LBB267:
.LBB268:
	.loc 3 134 0
	sbi 0x8,6
	.loc 3 135 0
	sbi 0x7,6
	.loc 3 137 0
	sbi 0x8,7
	.loc 3 138 0
	sbi 0x7,7
.LBE268:
.LBE267:
	.loc 6 125 0
	ldi r24,lo8(4)
	out 0x25,r24
.LBB269:
.LBB270:
	.file 13 "./Board/LEDs.h"
	.loc 13 34 0
	in r24,0xb
	ori r24,lo8(48)
	out 0xb,r24
	.loc 13 35 0
	in r24,0xa
	ori r24,lo8(48)
	out 0xa,r24
.LBE270:
.LBE269:
.LBB271:
.LBB272:
	.loc 5 191 0
	sbi 0x8,2
	.loc 5 192 0
	cbi 0x7,2
	.loc 5 193 0
	sbi 0x8,4
	.loc 5 194 0
	cbi 0x7,4
	.loc 5 195 0
	sbi 0x8,5
	.loc 5 196 0
	cbi 0x7,5
	.loc 5 197 0
	sbi 0x5,7
	.loc 5 198 0
	cbi 0x4,7
	.loc 5 201 0
	lds r24,104
	ori r24,lo8(1)
	sts 104,r24
	.loc 5 202 0
	lds r24,104
	ori r24,lo8(2)
	sts 104,r24
	.loc 5 205 0
	lds r24,108
	ori r24,lo8(8)
	sts 108,r24
.LVL87:
.LBE272:
.LBE271:
.LBB273:
.LBB274:
	.loc 9 45 0
	cbi 0x5,5
.LVL88:
.LBB275:
.LBB276:
	.loc 12 168 0
	ldi r24,lo8(35)
	out 0x2e,r24
.L38:
	.loc 12 169 0
	in __tmp_reg__,0x2d
	sbrs __tmp_reg__,7
	rjmp .L38
.LVL89:
.LBE276:
.LBE275:
.LBB277:
.LBB278:
	.loc 12 168 0
	ldi r24,lo8(-94)
	out 0x2e,r24
.L39:
	.loc 12 169 0
	in __tmp_reg__,0x2d
	sbrs __tmp_reg__,7
	rjmp .L39
.LVL90:
.LBE278:
.LBE277:
	.loc 9 48 0
	sbi 0x5,5
	.loc 9 51 0
	in r25,0x5
	ldi r24,lo8(64)
	eor r25,r24
	out 0x5,r25
	.loc 9 52 0
	in r25,0x5
	eor r24,r25
	out 0x5,r24
.LVL91:
.LBE274:
.LBE273:
.LBB279:
.LBB280:
	.loc 9 45 0
	cbi 0x5,5
.LVL92:
.LBB281:
.LBB282:
	.loc 12 168 0
	ldi r24,lo8(54)
	out 0x2e,r24
.L40:
	.loc 12 169 0
	in __tmp_reg__,0x2d
	sbrs __tmp_reg__,7
	rjmp .L40
.LVL93:
.LBE282:
.LBE281:
.LBB283:
.LBB284:
	.loc 12 168 0
	ldi r24,lo8(15)
	out 0x2e,r24
.L41:
	.loc 12 169 0
	in __tmp_reg__,0x2d
	sbrs __tmp_reg__,7
	rjmp .L41
.LVL94:
.LBE284:
.LBE283:
	.loc 9 48 0
	sbi 0x5,5
	.loc 9 51 0
	in r25,0x5
	ldi r24,lo8(64)
	eor r25,r24
	out 0x5,r25
	.loc 9 52 0
	in r25,0x5
	eor r24,r25
	out 0x5,r24
.LVL95:
	ret
.LBE280:
.LBE279:
	.cfi_endproc
.LFE170:
	.size	SetupHardware, .-SetupHardware
	.section	.text.startup.main,"ax",@progbits
.global	main
	.type	main, @function
main:
.LFB169:
	.loc 6 41 0
	.cfi_startproc
/* prologue: function */
/* frame size = 0 */
/* stack size = 0 */
.L__stack_usage = 0
	.loc 6 42 0
	call SetupHardware
.LVL96:
.LBB322:
	.loc 6 67 0
	ldi r17,lo8(3)
.L61:
.LVL97:
.LBB323:
.LBB324:
.LBB325:
.LBB326:
	.loc 1 57 0
	in r18,__SREG__
.LVL98:
.LBB327:
.LBB328:
	.loc 2 50 0
/* #APP */
 ;  50 "/nethome/mchang87/Projects/RRAM/atmega16u2/avr8-gnu-toolchain-linux_x86_64/avr/include/util/atomic.h" 1
	cli
 ;  0 "" 2
.LVL99:
/* #NOAPP */
.LBE328:
.LBE327:
	.loc 1 59 0
	lds r24,USBtoUSART_Buffer+132
	lds r25,USBtoUSART_Buffer+132+1
.LVL100:
.LBB329:
.LBB330:
	.loc 2 70 0
	out __SREG__,r18
	.loc 2 71 0
.LVL101:
.LBE330:
.LBE329:
.LBE326:
.LBE325:
.LBE324:
.LBE323:
	.loc 6 48 0
	cpi r24,-128
	cpc r25,__zero_reg__
	breq .L48
.LBB331:
	.loc 6 50 0
	ldi r24,lo8(VirtualSerial_CDC_Interface)
	ldi r25,hi8(VirtualSerial_CDC_Interface)
	call CDC_Device_ReceiveByte
.LVL102:
	movw r28,r24
.LVL103:
	.loc 6 53 0
	sbrc r25,7
	rjmp .L48
	.loc 6 54 0
	mov r22,r24
	ldi r24,lo8(USBtoUSART_Buffer)
	ldi r25,hi8(USBtoUSART_Buffer)
.LVL104:
	call RingBuffer_Insert
.LVL105:
	.loc 6 55 0
	mov r22,r28
	ldi r24,lo8(USARTtoUSB_Buffer)
	ldi r25,hi8(USARTtoUSB_Buffer)
	call RingBuffer_Insert
.LVL106:
.L48:
.LBE331:
.LBB332:
.LBB333:
.LBB334:
	.loc 1 57 0
	in r24,__SREG__
.LVL107:
.LBB335:
.LBB336:
	.loc 2 50 0
/* #APP */
 ;  50 "/nethome/mchang87/Projects/RRAM/atmega16u2/avr8-gnu-toolchain-linux_x86_64/avr/include/util/atomic.h" 1
	cli
 ;  0 "" 2
.LVL108:
/* #NOAPP */
.LBE336:
.LBE335:
	.loc 1 59 0
	lds r28,USARTtoUSB_Buffer+132
	lds r29,USARTtoUSB_Buffer+132+1
.LVL109:
.LBB337:
.LBB338:
	.loc 2 70 0
	out __SREG__,r24
	.loc 2 71 0
.LVL110:
.LBE338:
.LBE337:
.LBE334:
.LBE333:
.LBE332:
	.loc 6 61 0
	sbic 0x15,0
	rjmp .L50
	.loc 6 61 0 is_stmt 0 discriminator 1
	cpi r28,97
	cpc r29,__zero_reg__
	brlo .L51
.L50:
	.loc 6 63 0 is_stmt 1
	sbi 0x15,0
	.loc 6 65 0
	lds r24,USARTtoUSB_Buffer+132
	lds r25,USARTtoUSB_Buffer+132+1
	or r24,r25
	breq .L53
.LVL111:
.LBB339:
.LBB340:
	.loc 13 46 0
	cbi 0xb,5
.LVL112:
.LBE340:
.LBE339:
	.loc 6 67 0
	sts TxLEDPulse,r17
.L53:
.LVL113:
	.loc 6 71 0
	sbiw r28,0
	breq .L73
	.loc 6 72 0
	ldi r24,lo8(USARTtoUSB_Buffer)
	ldi r25,hi8(USARTtoUSB_Buffer)
	call RingBuffer_Remove
.LVL114:
	mov r22,r24
	ldi r24,lo8(VirtualSerial_CDC_Interface)
	ldi r25,hi8(VirtualSerial_CDC_Interface)
	call CDC_Device_SendByte
.LVL115:
	sbiw r28,1
.LVL116:
	rjmp .L53
.LVL117:
.L73:
	.loc 6 75 0
	lds r24,TxLEDPulse
	tst r24
	breq .L56
	.loc 6 75 0 is_stmt 0 discriminator 1
	subi r24,lo8(-(-1))
	sts TxLEDPulse,r24
	cpse r24,__zero_reg__
	rjmp .L56
.LVL118:
.LBB341:
.LBB342:
	.loc 13 51 0 is_stmt 1
	sbi 0xb,5
.LVL119:
.L56:
.LBE342:
.LBE341:
	.loc 6 79 0
	lds r24,RxLEDPulse
	tst r24
	breq .L51
	.loc 6 79 0 is_stmt 0 discriminator 1
	subi r24,lo8(-(-1))
	sts RxLEDPulse,r24
	cpse r24,__zero_reg__
	rjmp .L51
.LVL120:
.LBB343:
.LBB344:
	.loc 13 51 0 is_stmt 1
	sbi 0xb,4
.LVL121:
.L51:
.LBE344:
.LBE343:
.LBB345:
.LBB346:
.LBB347:
.LBB348:
	.loc 1 57 0
	in r18,__SREG__
.LVL122:
.LBB349:
.LBB350:
	.loc 2 50 0
/* #APP */
 ;  50 "/nethome/mchang87/Projects/RRAM/atmega16u2/avr8-gnu-toolchain-linux_x86_64/avr/include/util/atomic.h" 1
	cli
 ;  0 "" 2
.LVL123:
/* #NOAPP */
.LBE350:
.LBE349:
	.loc 1 59 0
	lds r24,USBtoUSART_Buffer+132
	lds r25,USBtoUSART_Buffer+132+1
.LVL124:
.LBB351:
.LBB352:
	.loc 2 70 0
	out __SREG__,r18
	.loc 2 71 0
.LVL125:
.LBE352:
.LBE351:
.LBE348:
.LBE347:
.LBE346:
.LBE345:
	.loc 6 84 0
	or r24,r25
	breq .L59
	.loc 6 85 0
	ldi r24,lo8(USBtoUSART_Buffer)
	ldi r25,hi8(USBtoUSART_Buffer)
	call RingBuffer_Remove
.LVL126:
.L60:
.LBB353:
.LBB354:
	.loc 11 142 0
	lds r25,200
	sbrs r25,5
	rjmp .L60
	.loc 11 143 0
	sts 206,r24
.LVL127:
.LBE354:
.LBE353:
.LBB355:
.LBB356:
	.loc 13 46 0
	cbi 0xb,4
.LVL128:
.LBE356:
.LBE355:
	.loc 6 88 0
	sts RxLEDPulse,r17
.L59:
	.loc 6 91 0
	ldi r24,lo8(VirtualSerial_CDC_Interface)
	ldi r25,hi8(VirtualSerial_CDC_Interface)
	call CDC_Device_USBTask
.LVL129:
	.loc 6 92 0
	call USB_USBTask
.LVL130:
.LBE322:
	.loc 6 93 0
	rjmp .L61
	.cfi_endproc
.LFE169:
	.size	main, .-main
	.section	.text.Write_Program,"ax",@progbits
.global	Write_Program
	.type	Write_Program, @function
Write_Program:
.LFB171:
	.loc 6 149 0
	.cfi_startproc
/* prologue: function */
/* frame size = 0 */
/* stack size = 0 */
.L__stack_usage = 0
.LBB368:
.LBB369:
	.loc 3 265 0
	sbi 0x8,6
	.loc 3 266 0
	ldi r24,lo8(50)
	call SW_PulseClock
.LVL131:
	.loc 3 267 0
	ldi r20,lo8(16)
	ldi r22,lo8(-98)
	ldi r23,lo8(-25)
	ldi r24,0
	ldi r25,0
	call SW_Send
.LVL132:
	.loc 3 268 0
	sbi 0x8,6
	.loc 3 269 0
	ldi r24,lo8(50)
	call SW_PulseClock
.LVL133:
.LBE369:
.LBE368:
.LBB370:
.LBB371:
.LBB372:
	.loc 3 169 0
	sbi 0x8,6
	.loc 3 170 0
	ldi r24,lo8(50)
	call SW_PulseClock
.LVL134:
	.loc 3 171 0
	cbi 0x8,6
	.loc 3 172 0
	ldi r24,lo8(50)
	call SW_PulseClock
.LVL135:
.LBE372:
.LBE371:
.LBB373:
.LBB374:
	.loc 3 228 0
	ldi r22,0
	ldi r23,0
	movw r24,r22
	call getParity
.LVL136:
	ldi r22,lo8(4)
	ldi r23,0
	ldi r24,0
	ldi r25,0
	call getParity
.LVL137:
	.loc 3 229 0
	swap r24
.LVL138:
	lsl r24
	andi r24,lo8(-32)
	ori r24,lo8(-123)
.LVL139:
	.loc 3 240 0
	mov r12,r24
	mov r13,__zero_reg__
	mov r14,__zero_reg__
	mov r15,__zero_reg__
.LBB375:
.LBB376:
.LBB377:
	.loc 3 206 0
	ldi r16,lo8(1)
	ldi r17,0
.LVL140:
.L77:
.LBE377:
.LBE376:
.LBE375:
	.loc 3 240 0
	ldi r20,lo8(8)
	movw r24,r14
	movw r22,r12
	call SW_Send
.LVL141:
	.loc 3 241 0
	ldi r24,lo8(1)
	call SW_PulseClock
.LVL142:
.LBB380:
.LBB379:
	.loc 3 201 0
	sbi 0x8,6
	.loc 3 202 0
	cbi 0x7,6
.LVL143:
	ldi r28,0
	ldi r29,0
	.loc 3 198 0
	mov r8,__zero_reg__
	mov r9,__zero_reg__
	movw r10,r8
.LVL144:
.L76:
.LBB378:
	.loc 3 206 0
	sbis 0x6,6
	rjmp .L79
	movw r24,r16
	mov r0,r28
	rjmp 2f
	1:
	lsl r24
	rol r25
	2:
	dec r0
	brpl 1b
	rjmp .L75
.L79:
	ldi r24,0
	ldi r25,0
.L75:
	mov __tmp_reg__,r25
	lsl r0
	sbc r26,r26
	sbc r27,r27
	or r8,r24
	or r9,r25
	or r10,r26
	or r11,r27
.LVL145:
	.loc 3 207 0
	ldi r24,lo8(1)
	call SW_PulseClock
.LVL146:
	adiw r28,1
.LVL147:
	.loc 3 205 0
	cpi r28,3
	cpc r29,__zero_reg__
	brne .L76
.LBE378:
	.loc 3 211 0
	sbi 0x8,6
	.loc 3 212 0
	sbi 0x7,6
.LVL148:
.LBE379:
.LBE380:
	.loc 3 242 0
	ldi r24,lo8(2)
	cpse r8,r24
	rjmp .L77
	.loc 3 243 0
	ldi r24,lo8(1)
	call SW_PulseClock
.LVL149:
	rjmp .L77
.LBE374:
.LBE373:
.LBE370:
	.cfi_endproc
.LFE171:
	.size	Write_Program, .-Write_Program
	.section	.text.EVENT_USB_Device_ConfigurationChanged,"ax",@progbits
.global	EVENT_USB_Device_ConfigurationChanged
	.type	EVENT_USB_Device_ConfigurationChanged, @function
EVENT_USB_Device_ConfigurationChanged:
.LFB172:
	.loc 6 169 0
	.cfi_startproc
/* prologue: function */
/* frame size = 0 */
/* stack size = 0 */
.L__stack_usage = 0
	.loc 6 170 0
	ldi r24,lo8(VirtualSerial_CDC_Interface)
	ldi r25,hi8(VirtualSerial_CDC_Interface)
	jmp CDC_Device_ConfigureEndpoints
.LVL150:
	.cfi_endproc
.LFE172:
	.size	EVENT_USB_Device_ConfigurationChanged, .-EVENT_USB_Device_ConfigurationChanged
	.section	.text.EVENT_USB_Device_UnhandledControlRequest,"ax",@progbits
.global	EVENT_USB_Device_UnhandledControlRequest
	.type	EVENT_USB_Device_UnhandledControlRequest, @function
EVENT_USB_Device_UnhandledControlRequest:
.LFB173:
	.loc 6 175 0
	.cfi_startproc
/* prologue: function */
/* frame size = 0 */
/* stack size = 0 */
.L__stack_usage = 0
	.loc 6 176 0
	ldi r24,lo8(VirtualSerial_CDC_Interface)
	ldi r25,hi8(VirtualSerial_CDC_Interface)
	jmp CDC_Device_ProcessControlRequest
.LVL151:
	.cfi_endproc
.LFE173:
	.size	EVENT_USB_Device_UnhandledControlRequest, .-EVENT_USB_Device_UnhandledControlRequest
	.section	.text.EVENT_CDC_Device_LineEncodingChanged,"ax",@progbits
.global	EVENT_CDC_Device_LineEncodingChanged
	.type	EVENT_CDC_Device_LineEncodingChanged, @function
EVENT_CDC_Device_LineEncodingChanged:
.LFB174:
	.loc 6 185 0
	.cfi_startproc
.LVL152:
	push r28
.LCFI32:
	.cfi_def_cfa_offset 3
	.cfi_offset 28, -2
	push r29
.LCFI33:
	.cfi_def_cfa_offset 4
	.cfi_offset 29, -3
/* prologue: function */
/* frame size = 0 */
/* stack size = 2 */
.L__stack_usage = 2
	movw r28,r24
	.loc 6 187 0
	sts 201,__zero_reg__
	.loc 6 190 0
	ldd r18,Y+15
	ldd r19,Y+16
	ldd r20,Y+17
	ldd r21,Y+18
	movw r26,r20
	movw r24,r18
.LVL153:
	lsr r27
	ror r26
	ror r25
	ror r24
	movw r22,r24
	movw r24,r26
	subi r22,-128
	sbci r23,123
	sbci r24,-31
	sbci r25,-1
	call __udivmodsi4
	subi r18,1
	sbc r19,__zero_reg__
	sts 204+1,r19
	sts 204,r18
.LVL154:
.LBB381:
	.loc 6 197 0
	ldd r24,Y+20
	cpi r24,lo8(1)
	breq .L86
	cpi r24,lo8(2)
	brne .L95
.LVL155:
	.loc 6 199 0
	ldi r24,lo8(32)
	rjmp .L85
.LVL156:
.L86:
	.loc 6 198 0
	ldi r24,lo8(48)
	rjmp .L85
.L95:
	.loc 6 194 0
	ldi r24,0
.LVL157:
.L85:
	.loc 6 203 0
	ldd r25,Y+19
	cpi r25,lo8(2)
	brne .L88
	.loc 6 204 0
	ori r24,lo8(8)
.LVL158:
.L88:
	.loc 6 207 0
	ldd r25,Y+21
	cpi r25,lo8(7)
	breq .L90
	cpi r25,lo8(8)
	breq .L91
	cpi r25,lo8(6)
	brne .L89
	.loc 6 208 0
	ori r24,lo8(2)
.LVL159:
	rjmp .L89
.L90:
	.loc 6 209 0
	ori r24,lo8(4)
.LVL160:
	rjmp .L89
.L91:
	.loc 6 210 0
	ori r24,lo8(6)
.LVL161:
.L89:
	.loc 6 213 0
	sts 202,r24
.LBE381:
	.loc 6 217 0
	ldi r24,lo8(2)
.LVL162:
	sts 200,r24
.LVL163:
	.loc 6 220 0
	ldi r24,lo8(-104)
	sts 201,r24
/* epilogue start */
	.loc 6 221 0
	pop r29
	pop r28
.LVL164:
	ret
	.cfi_endproc
.LFE174:
	.size	EVENT_CDC_Device_LineEncodingChanged, .-EVENT_CDC_Device_LineEncodingChanged
	.section	.rodata.str1.1,"aMS",@progbits,1
.LC0:
	.string	"ICSRL>"
	.section	.text.EVENT_CDC_Device_ControLineStateChanged,"ax",@progbits
.global	EVENT_CDC_Device_ControLineStateChanged
	.type	EVENT_CDC_Device_ControLineStateChanged, @function
EVENT_CDC_Device_ControLineStateChanged:
.LFB175:
	.loc 6 228 0
	.cfi_startproc
.LVL165:
	push r28
.LCFI34:
	.cfi_def_cfa_offset 3
	.cfi_offset 28, -2
	push r29
.LCFI35:
	.cfi_def_cfa_offset 4
	.cfi_offset 29, -3
/* prologue: function */
/* frame size = 0 */
/* stack size = 2 */
.L__stack_usage = 2
.LVL166:
	.loc 6 232 0
	movw r30,r24
	ldd r24,Z+13
.LVL167:
	sbrs r24,0
	rjmp .L97
	ldi r28,lo8(.LC0)
	ldi r29,hi8(.LC0)
.LVL168:
.L98:
.LBB385:
.LBB386:
	.file 14 "Lib/UARTConsole.h"
	.loc 14 22 0
	ld r22,Y+
.LVL169:
	ldi r24,lo8(VirtualSerial_CDC_Interface)
	ldi r25,hi8(VirtualSerial_CDC_Interface)
	call CDC_Device_SendByte
.LVL170:
	.loc 14 21 0
	ldi r31,hi8(.LC0+6)
	cpi r28,lo8(.LC0+6)
	cpc r29,r31
	brne .L98
.LVL171:
.LBE386:
.LBE385:
	.loc 6 234 0
	cbi 0xb,7
	rjmp .L96
.LVL172:
.L97:
	.loc 6 237 0
	sbi 0xb,7
.LVL173:
.L96:
/* epilogue start */
	.loc 6 239 0
	pop r29
	pop r28
	ret
	.cfi_endproc
.LFE175:
	.size	EVENT_CDC_Device_ControLineStateChanged, .-EVENT_CDC_Device_ControLineStateChanged
	.section	.text.__vector_23,"ax",@progbits
.global	__vector_23
	.type	__vector_23, @function
__vector_23:
.LFB176:
	.loc 6 247 0
	.cfi_startproc
	push r1
.LCFI36:
	.cfi_def_cfa_offset 3
	.cfi_offset 1, -2
	push r0
.LCFI37:
	.cfi_def_cfa_offset 4
	.cfi_offset 0, -3
	in r0,__SREG__
	push r0
	clr __zero_reg__
	push r18
.LCFI38:
	.cfi_def_cfa_offset 5
	.cfi_offset 18, -4
	push r19
.LCFI39:
	.cfi_def_cfa_offset 6
	.cfi_offset 19, -5
	push r20
.LCFI40:
	.cfi_def_cfa_offset 7
	.cfi_offset 20, -6
	push r21
.LCFI41:
	.cfi_def_cfa_offset 8
	.cfi_offset 21, -7
	push r22
.LCFI42:
	.cfi_def_cfa_offset 9
	.cfi_offset 22, -8
	push r23
.LCFI43:
	.cfi_def_cfa_offset 10
	.cfi_offset 23, -9
	push r24
.LCFI44:
	.cfi_def_cfa_offset 11
	.cfi_offset 24, -10
	push r25
.LCFI45:
	.cfi_def_cfa_offset 12
	.cfi_offset 25, -11
	push r26
.LCFI46:
	.cfi_def_cfa_offset 13
	.cfi_offset 26, -12
	push r27
.LCFI47:
	.cfi_def_cfa_offset 14
	.cfi_offset 27, -13
	push r30
.LCFI48:
	.cfi_def_cfa_offset 15
	.cfi_offset 30, -14
	push r31
.LCFI49:
	.cfi_def_cfa_offset 16
	.cfi_offset 31, -15
/* prologue: Signal */
/* frame size = 0 */
/* stack size = 15 */
.L__stack_usage = 15
	.loc 6 249 0
	lds r22,206
	ldi r24,lo8(USARTtoUSB_Buffer)
	ldi r25,hi8(USARTtoUSB_Buffer)
	call RingBuffer_Insert
.LVL174:
/* epilogue start */
	.loc 6 250 0
	pop r31
	pop r30
	pop r27
	pop r26
	pop r25
	pop r24
	pop r23
	pop r22
	pop r21
	pop r20
	pop r19
	pop r18
	pop r0
	out __SREG__,r0
	pop r0
	pop r1
	reti
	.cfi_endproc
.LFE176:
	.size	__vector_23, .-__vector_23
.global	VirtualSerial_CDC_Interface
	.data
	.type	VirtualSerial_CDC_Interface, @object
	.size	VirtualSerial_CDC_Interface, 22
VirtualSerial_CDC_Interface:
	.byte	0
	.byte	3
	.word	64
	.byte	0
	.byte	4
	.word	64
	.byte	0
	.byte	2
	.word	8
	.byte	0
	.zero	9
	.comm	USARTtoUSB_Buffer,134,1
	.comm	USBtoUSART_Buffer,134,1
	.comm	command,64,1
	.comm	RxLEDPulse,1,1
	.comm	TxLEDPulse,1,1
	.text
.Letext0:
	.file 15 "/nethome/mchang87/Projects/RRAM/atmega16u2/avr8-gnu-toolchain-linux_x86_64/avr/include/stdint.h"
	.file 16 "../../LUFA/Drivers/USB/Class/Device/../Common/CDC.h"
	.file 17 "../../LUFA/Drivers/USB/Class/Device/CDC.h"
	.file 18 "../../LUFA/Drivers/Board/Dataflash.h"
	.file 19 "../../LUFA/Drivers/USB/HighLevel/../LowLevel/USBController.h"
	.file 20 "../../LUFA/Drivers/USB/HighLevel/USBTask.h"